target datalayout = "e-m:e-p270:32:32-p271:32:32-p272:64:64-i64:64-i128:128-f80:128-n8:16:32:64-S128"
target triple = "x86_64-pc-linux-gnu"

%struct.preference = type { ptr, ptr, ptr, i32, i32, i32, %union.anon, %union.anon.0, %union.anon.1, %union.anon.2, %struct.pref_custom_cbs, ptr, ptr }
%union.anon = type { ptr }
%union.anon.0 = type { ptr }
%union.anon.1 = type { ptr }
%union.anon.2 = type { %struct.anon }
%struct.anon = type { ptr, i8 }
%struct.pref_custom_cbs = type { ptr, ptr, ptr, ptr, ptr, ptr, ptr }

@.str = private unnamed_addr constant [5 x i8] c"Epan\00", align 1
@.str.1 = private unnamed_addr constant [13 x i8] c"epan/prefs.c\00", align 1
@.str.8 = private unnamed_addr constant [31 x i8] c"assertion \22not reached\22 failed\00", align 1
@__func__.reset_stashed_pref = private unnamed_addr constant [19 x i8] c"reset_stashed_pref\00", align 1

; Function Attrs: alwaysinline nounwind
define internal ptr @memcpy.inline(ptr noalias %0, ptr noalias %1, i64 %2) #2 {
  %4 = alloca ptr, align 8
  %5 = alloca ptr, align 8
  %6 = alloca i64, align 8
  store ptr %0, ptr %4, align 8
  store ptr %1, ptr %5, align 8
  store i64 %2, ptr %6, align 8
  %7 = load ptr, ptr %4, align 8
  %8 = load ptr, ptr %5, align 8
  %9 = load i64, ptr %6, align 8
  %10 = load ptr, ptr %4, align 8
  %11 = call i64 @llvm.objectsize.i64.p0(ptr %10, i1 false, i1 true, i1 true)
  %12 = call ptr @__memcpy_chk(ptr noundef %7, ptr noundef %8, i64 noundef %9, i64 noundef %11) #17
  ret ptr %12
}

; Function Attrs: null_pointer_is_valid sspstrong uwtable
define void @reset_stashed_pref(ptr noundef %0) #1 {
  %2 = alloca ptr, align 8
  store ptr %0, ptr %2, align 8
  %3 = load ptr, ptr %2, align 8
  %4 = getelementptr inbounds nuw %struct.preference, ptr %3, i32 0, i32 4
  %5 = load i32, ptr %4, align 4
  switch i32 %5, label %68 [
    i32 1, label %6
    i32 2, label %12
    i32 4, label %20
    i32 8, label %26
    i32 128, label %26
    i32 16384, label %26
    i32 2048, label %26
    i32 32768, label %26
    i32 131072, label %26
    i32 8192, label %36
    i32 16, label %36
    i32 65536, label %48
    i32 256, label %60
    i32 32, label %66
    i32 64, label %66
    i32 512, label %66
    i32 1024, label %67
  ]

6:                                                ; preds = %1
  %7 = load ptr, ptr %2, align 8
  %8 = getelementptr inbounds nuw %struct.preference, ptr %7, i32 0, i32 8
  %9 = load i32, ptr %8, align 8
  %10 = load ptr, ptr %2, align 8
  %11 = getelementptr inbounds nuw %struct.preference, ptr %10, i32 0, i32 7
  store i32 %9, ptr %11, align 8
  br label %68

12:                                               ; preds = %1
  %13 = load ptr, ptr %2, align 8
  %14 = getelementptr inbounds nuw %struct.preference, ptr %13, i32 0, i32 8
  %15 = load i8, ptr %14, align 8, !range !6, !noundef !7
  %16 = trunc i8 %15 to i1
  %17 = load ptr, ptr %2, align 8
  %18 = getelementptr inbounds nuw %struct.preference, ptr %17, i32 0, i32 7
  %19 = zext i1 %16 to i8
  store i8 %19, ptr %18, align 8
  br label %68

20:                                               ; preds = %1
  %21 = load ptr, ptr %2, align 8
  %22 = getelementptr inbounds nuw %struct.preference, ptr %21, i32 0, i32 8
  %23 = load i32, ptr %22, align 8
  %24 = load ptr, ptr %2, align 8
  %25 = getelementptr inbounds nuw %struct.preference, ptr %24, i32 0, i32 7
  store i32 %23, ptr %25, align 8
  br label %68

26:                                               ; preds = %1, %1, %1, %1, %1, %1
  %27 = load ptr, ptr %2, align 8
  %28 = getelementptr inbounds nuw %struct.preference, ptr %27, i32 0, i32 7
  %29 = load ptr, ptr %28, align 8
  call void @g_free(ptr noundef %29)
  %30 = load ptr, ptr %2, align 8
  %31 = getelementptr inbounds nuw %struct.preference, ptr %30, i32 0, i32 8
  %32 = load ptr, ptr %31, align 8
  %33 = call noalias ptr @g_strdup(ptr noundef %32)
  %34 = load ptr, ptr %2, align 8
  %35 = getelementptr inbounds nuw %struct.preference, ptr %34, i32 0, i32 7
  store ptr %33, ptr %35, align 8
  br label %68

36:                                               ; preds = %1, %1
  %37 = call ptr @wmem_epan_scope()
  %38 = load ptr, ptr %2, align 8
  %39 = getelementptr inbounds nuw %struct.preference, ptr %38, i32 0, i32 7
  %40 = load ptr, ptr %39, align 8
  call void @wmem_free(ptr noundef %37, ptr noundef %40)
  %41 = call ptr @wmem_epan_scope()
  %42 = load ptr, ptr %2, align 8
  %43 = getelementptr inbounds nuw %struct.preference, ptr %42, i32 0, i32 8
  %44 = load ptr, ptr %43, align 8
  %45 = call ptr @range_copy(ptr noundef %41, ptr noundef %44)
  %46 = load ptr, ptr %2, align 8
  %47 = getelementptr inbounds nuw %struct.preference, ptr %46, i32 0, i32 7
  store ptr %45, ptr %47, align 8
  br label %68

48:                                               ; preds = %1
  %49 = load ptr, ptr %2, align 8
  %50 = getelementptr inbounds nuw %struct.preference, ptr %49, i32 0, i32 7
  %51 = load ptr, ptr %50, align 8
  %52 = icmp ne ptr %51, null
  br i1 %52, label %53, label %59

53:                                               ; preds = %48
  %54 = load ptr, ptr %2, align 8
  %55 = getelementptr inbounds nuw %struct.preference, ptr %54, i32 0, i32 7
  %56 = load ptr, ptr %55, align 8
  call void @g_list_free(ptr noundef %56)
  %57 = load ptr, ptr %2, align 8
  %58 = getelementptr inbounds nuw %struct.preference, ptr %57, i32 0, i32 7
  store ptr null, ptr %58, align 8
  br label %59

59:                                               ; preds = %53, %48
  br label %68

60:                                               ; preds = %1
  %61 = load ptr, ptr %2, align 8
  %62 = getelementptr inbounds nuw %struct.preference, ptr %61, i32 0, i32 7
  %63 = load ptr, ptr %2, align 8
  %64 = getelementptr inbounds nuw %struct.preference, ptr %63, i32 0, i32 8
  %65 = call ptr @memcpy.inline(ptr noundef %62, ptr noundef %64, i64 noundef 6) #17
  br label %68

66:                                               ; preds = %1, %1, %1
  br label %68

67:                                               ; preds = %1
  call void (ptr, i32, ptr, i64, ptr, ptr, ...) @ws_log_fatal_full(ptr noundef @.str, i32 noundef 7, ptr noundef @.str.1, i64 noundef 2359, ptr noundef @__func__.reset_stashed_pref, ptr noundef @.str.8) #18
  unreachable

68:                                               ; preds = %1, %66, %60, %59, %36, %26, %20, %12, %6
  ret void
}