; Function Attrs: null_pointer_is_valid sspstrong uwtable
define void @reset_stashed_pref(ptr noundef %0) local_unnamed_addr #1 {
  %2 = getelementptr inbounds nuw i8, ptr %0, i64 28
  %3 = load i32, ptr %2, align 4
  switch i32 %3, label %38 [
    i32 1, label %4
    i32 2, label %8
    i32 4, label %12
    i32 8, label %16
    i32 128, label %16
    i32 16384, label %16
    i32 2048, label %16
    i32 32768, label %16
    i32 131072, label %16
    i32 8192, label %22
    i32 16, label %22
    i32 65536, label %30
    i32 256, label %34
    i32 1024, label %37
  ]

4:                                                ; preds = %1
  %5 = getelementptr inbounds nuw i8, ptr %0, i64 56
  %6 = load i32, ptr %5, align 8
  %7 = getelementptr inbounds nuw i8, ptr %0, i64 48
  store i32 %6, ptr %7, align 8
  br label %38

8:                                                ; preds = %1
  %9 = getelementptr inbounds nuw i8, ptr %0, i64 56
  %10 = load i8, ptr %9, align 8, !range !6, !noundef !7
  %11 = getelementptr inbounds nuw i8, ptr %0, i64 48
  store i8 %10, ptr %11, align 8
  br label %38

12:                                               ; preds = %1
  %13 = getelementptr inbounds nuw i8, ptr %0, i64 56
  %14 = load i32, ptr %13, align 8
  %15 = getelementptr inbounds nuw i8, ptr %0, i64 48
  store i32 %14, ptr %15, align 8
  br label %38

16:                                               ; preds = %1, %1, %1, %1, %1, %1
  %17 = getelementptr inbounds nuw i8, ptr %0, i64 48
  %18 = load ptr, ptr %17, align 8
  tail call void @g_free(ptr noundef %18)
  %19 = getelementptr inbounds nuw i8, ptr %0, i64 56
  %20 = load ptr, ptr %19, align 8
  %21 = tail call noalias ptr @g_strdup(ptr noundef %20)
  store ptr %21, ptr %17, align 8
  br label %38

22:                                               ; preds = %1, %1
  %23 = tail call ptr @wmem_epan_scope()
  %24 = getelementptr inbounds nuw i8, ptr %0, i64 48
  %25 = load ptr, ptr %24, align 8
  tail call void @wmem_free(ptr noundef %23, ptr noundef %25)
  %26 = tail call ptr @wmem_epan_scope()
  %27 = getelementptr inbounds nuw i8, ptr %0, i64 56
  %28 = load ptr, ptr %27, align 8
  %29 = tail call ptr @range_copy(ptr noundef %26, ptr noundef %28)
  store ptr %29, ptr %24, align 8
  br label %38

30:                                               ; preds = %1
  %31 = getelementptr inbounds nuw i8, ptr %0, i64 48
  %32 = load ptr, ptr %31, align 8
  %.not = icmp eq ptr %32, null
  br i1 %.not, label %38, label %33

33:                                               ; preds = %30
  tail call void @g_list_free(ptr noundef nonnull %32)
  store ptr null, ptr %31, align 8
  br label %38

34:                                               ; preds = %1
  %35 = getelementptr inbounds nuw i8, ptr %0, i64 48
  %36 = getelementptr inbounds nuw i8, ptr %0, i64 56
  tail call void @llvm.memcpy.p0.p0.i64(ptr noundef nonnull align 1 dereferenceable(6) %35, ptr noundef nonnull align 1 dereferenceable(6) %36, i64 noundef 6, i1 noundef false) #25
  br label %38

37:                                               ; preds = %1
  tail call void (ptr, i32, ptr, i64, ptr, ptr, ...) @ws_log_fatal_full(ptr noundef nonnull @.str, i32 noundef 7, ptr noundef nonnull @.str.1, i64 noundef 2359, ptr noundef nonnull @__func__.reset_stashed_pref, ptr noundef nonnull @.str.8) #26
  unreachable

38:                                               ; preds = %30, %33, %34, %22, %16, %12, %8, %4, %1
  ret void
}